Certificate:
    Data:
        Version: 3 (0x2)
        Serial Number: 41 (0x29)
        Signature Algorithm: sha1WithRSAEncryption
        Issuer: CN=SecurityMetrics CA, C=US, ST=Utah, L=Orem, O=securitymetrics.com/emailAddress=operations@securitymetrics.com
        Validity
            Not Before: Dec  8 21:09:10 2010 GMT
            Not After : Apr 25 21:09:10 2038 GMT
        Subject: C=US, ST=Utah, O=securitymetrics.com, CN=alice/emailAddress=ops@securitymetrics.com
        Subject Public Key Info:
            Public Key Algorithm: rsaEncryption
            RSA Public Key: (2048 bit)
                Modulus (2048 bit):
                    00:f2:f5:52:f6:8d:77:95:c2:c9:3c:c8:ed:28:de:
                    1e:80:e1:43:7d:c6:bb:8c:f7:c5:1a:72:58:e9:b5:
                    df:ae:82:6b:25:a9:c2:0a:c8:e9:b4:a3:f5:12:ad:
                    0c:bc:9c:d1:91:05:f7:f9:da:de:fd:0c:bc:8b:22:
                    88:dc:32:39:96:bd:7b:bf:49:54:5d:45:f8:77:b7:
                    08:08:cb:da:45:44:92:c9:f2:95:e3:99:ad:64:d4:
                    50:82:34:68:41:f6:d5:98:c5:7d:dc:28:ce:fb:38:
                    c1:ee:81:91:5e:ef:54:0a:f0:9f:8f:b9:00:ae:87:
                    ce:99:cf:6d:c8:eb:57:ad:52:3e:3d:4b:d6:7e:43:
                    93:90:e9:9c:19:cd:67:bd:50:f6:53:be:16:88:84:
                    d2:15:34:c3:ea:c0:b7:18:c0:5f:8b:b1:88:c6:bc:
                    bd:9f:0f:8a:24:3f:5d:da:26:6e:15:4c:cb:7e:42:
                    b3:5c:e1:80:ac:bd:76:6f:8a:a0:0a:8d:9f:f2:f3:
                    d3:27:59:72:6b:b7:9a:d1:73:e4:23:1e:eb:7c:a2:
                    33:89:b5:cf:c4:31:72:f8:d7:6e:0f:2e:cd:05:10:
                    c7:1b:16:a6:7e:68:95:bd:0e:4f:9e:a7:ee:eb:b1:
                    58:78:26:26:90:05:ae:b3:61:f7:b3:0f:e5:cf:32:
                    31:21
                Exponent: 65537 (0x10001)
        X509v3 extensions:
            X509v3 Basic Constraints: 
                CA:FALSE
            X509v3 Subject Key Identifier: 
                C8:AD:19:F6:CC:90:B8:AA:C1:88:5A:FF:3B:1A:09:73:7D:F9:BC:82
            X509v3 Authority Key Identifier: 
                keyid:47:DF:2C:35:75:78:05:25:2E:CB:18:A2:B9:69:4E:F5:35:D3:2E:A8
                DirName:/CN=SecurityMetrics CA/C=US/ST=Utah/L=Orem/O=securitymetrics.com/emailAddress=operations@securitymetrics.com
                serial:A3:59:46:C5:83:25:B9:BE

            Netscape CA Revocation Url: 
                https://ops.securitymetrics.com/ca-crl.pem
    Signature Algorithm: sha1WithRSAEncryption
        6b:0d:73:34:3a:f5:74:f3:a7:80:8d:cb:ea:18:f5:82:1e:48:
        b3:8e:ff:eb:f9:58:8d:8b:bf:c2:f5:03:2f:4f:62:16:c3:7e:
        07:ec:7f:52:17:5f:a2:0e:19:9b:97:ea:fd:01:8f:37:04:41:
        d6:e0:ff:ef:f6:d8:40:74:b1:f5:7e:75:8b:12:d8:ce:6b:9a:
        6f:b4:f5:35:23:ed:f9:5a:97:87:dd:d8:16:c3:f9:50:84:5e:
        f7:05:93:62:60:af:9c:06:b7:58:68:b5:95:54:ca:49:d5:c6:
        7c:2b:25:c0:0f:a5:df:b4:8d:90:f1:8e:a7:c7:90:e6:f8:68:
        f5:1e:3b:59:93:a4:e7:35:ae:55:52:ca:f4:cd:49:d2:f9:1b:
        40:24:e8:d6:c8:1c:2b:f5:c4:d8:04:1a:3d:f7:ce:a9:24:f5:
        59:aa:2d:56:58:cd:e4:20:ab:7d:1e:af:0e:1a:9d:f7:21:8a:
        26:28:a7:8d:40:61:af:4c:fc:02:0f:a2:b5:75:b2:c1:24:26:
        ce:7e:8f:45:37:7f:ce:5e:39:e0:83:5f:b4:b8:a3:19:4d:c2:
        89:f5:15:fe:0d:c4:5b:58:2c:a6:3f:ff:bd:f5:e3:03:76:17:
        24:48:79:90:66:89:70:f7:ec:26:bc:40:57:a1:35:c7:42:7d:
        08:81:a6:f5
-----BEGIN CERTIFICATE-----
MIIEuzCCA6OgAwIBAgIBKTANBgkqhkiG9w0BAQUFADCBlTEbMBkGA1UEAxMSU2Vj
dXJpdHlNZXRyaWNzIENBMQswCQYDVQQGEwJVUzENMAsGA1UECBMEVXRhaDENMAsG
A1UEBxMET3JlbTEcMBoGA1UEChMTc2VjdXJpdHltZXRyaWNzLmNvbTEtMCsGCSqG
SIb3DQEJARYeb3BlcmF0aW9uc0BzZWN1cml0eW1ldHJpY3MuY29tMB4XDTEwMTIw
ODIxMDkxMFoXDTM4MDQyNTIxMDkxMFowcjELMAkGA1UEBhMCVVMxDTALBgNVBAgT
BFV0YWgxHDAaBgNVBAoTE3NlY3VyaXR5bWV0cmljcy5jb20xDjAMBgNVBAMTBWFs
aWNlMSYwJAYJKoZIhvcNAQkBFhdvcHNAc2VjdXJpdHltZXRyaWNzLmNvbTCCASIw
DQYJKoZIhvcNAQEBBQADggEPADCCAQoCggEBAPL1UvaNd5XCyTzI7SjeHoDhQ33G
u4z3xRpyWOm1366CayWpwgrI6bSj9RKtDLyc0ZEF9/na3v0MvIsiiNwyOZa9e79J
VF1F+He3CAjL2kVEksnyleOZrWTUUII0aEH21ZjFfdwozvs4we6BkV7vVArwn4+5
AK6HzpnPbcjrV61SPj1L1n5Dk5DpnBnNZ71Q9lO+FoiE0hU0w+rAtxjAX4uxiMa8
vZ8PiiQ/XdombhVMy35Cs1zhgKy9dm+KoAqNn/Lz0ydZcmu3mtFz5CMe63yiM4m1
z8QxcvjXbg8uzQUQxxsWpn5olb0OT56n7uuxWHgmJpAFrrNh97MP5c8yMSECAwEA
AaOCATYwggEyMAkGA1UdEwQCMAAwHQYDVR0OBBYEFMitGfbMkLiqwYha/zsaCXN9
+byCMIHKBgNVHSMEgcIwgb+AFEffLDV1eAUlLssYorlpTvU10y6ooYGbpIGYMIGV
MRswGQYDVQQDExJTZWN1cml0eU1ldHJpY3MgQ0ExCzAJBgNVBAYTAlVTMQ0wCwYD
VQQIEwRVdGFoMQ0wCwYDVQQHEwRPcmVtMRwwGgYDVQQKExNzZWN1cml0eW1ldHJp
Y3MuY29tMS0wKwYJKoZIhvcNAQkBFh5vcGVyYXRpb25zQHNlY3VyaXR5bWV0cmlj
cy5jb22CCQCjWUbFgyW5vjA5BglghkgBhvhCAQQELBYqaHR0cHM6Ly9vcHMuc2Vj
dXJpdHltZXRyaWNzLmNvbS9jYS1jcmwucGVtMA0GCSqGSIb3DQEBBQUAA4IBAQBr
DXM0OvV086eAjcvqGPWCHkizjv/r+ViNi7/C9QMvT2IWw34H7H9SF1+iDhmbl+r9
AY83BEHW4P/v9thAdLH1fnWLEtjOa5pvtPU1I+35WpeH3dgWw/lQhF73BZNiYK+c
BrdYaLWVVMpJ1cZ8KyXAD6XftI2Q8Y6nx5Dm+Gj1HjtZk6TnNa5VUsr0zUnS+RtA
JOjWyBwr9cTYBBo9986pJPVZqi1WWM3kIKt9Hq8OGp33IYomKKeNQGGvTPwCD6K1
dbLBJCbOfo9FN3/OXjngg1+0uKMZTcKJ9RX+DcRbWCymP/+99eMDdhckSHmQZolw
9+wmvEBXoTXHQn0Igab1
-----END CERTIFICATE-----
