Certificate:
    Data:
        Version: 3 (0x2)
        Serial Number: 40 (0x28)
        Signature Algorithm: sha1WithRSAEncryption
        Issuer: CN=SecurityMetrics CA, C=US, ST=Utah, L=Orem, O=securitymetrics.com/emailAddress=operations@securitymetrics.com
        Validity
            Not Before: Dec  8 21:06:25 2010 GMT
            Not After : Apr 25 21:06:25 2038 GMT
        Subject: C=US, ST=Utah, O=securitymetrics.com, CN=bob/emailAddress=ops@securitymetrics.com
        Subject Public Key Info:
            Public Key Algorithm: rsaEncryption
            RSA Public Key: (2048 bit)
                Modulus (2048 bit):
                    00:ad:26:a6:7c:22:a2:4c:04:2f:3c:89:9e:8a:11:
                    c5:8b:69:23:b7:38:3c:9f:7b:1e:09:d2:cf:c4:00:
                    3d:70:6c:6d:3e:dd:e1:33:0b:5f:d9:ae:d8:de:5b:
                    b1:78:2f:4d:b5:ae:58:f4:4f:94:25:ac:fb:f5:73:
                    dc:f6:8c:94:bb:a7:49:0b:6d:79:7b:91:aa:f2:95:
                    44:b0:95:cf:97:7d:5a:c0:f3:fe:1a:98:23:b0:f6:
                    2e:9d:20:e8:b6:37:41:62:ac:1a:13:1c:04:54:55:
                    a1:97:ea:e4:4f:53:f3:81:ed:b9:48:7f:66:cb:65:
                    52:bb:42:5a:9a:4b:eb:a5:16:a0:ab:8a:3c:83:ad:
                    a9:51:57:d7:e9:0b:2e:3f:45:d0:56:c5:ef:d1:9b:
                    7d:ec:7a:d7:8a:1c:c3:5b:31:96:be:32:bc:41:8e:
                    1e:a2:49:39:b6:f7:1a:b6:1b:09:cd:70:4f:c8:cb:
                    46:ab:89:e5:c8:a0:68:17:4f:ca:6c:22:a6:e0:5a:
                    d4:19:2d:c1:92:41:7b:7a:f2:c7:ea:52:2e:20:ff:
                    f2:77:ea:38:09:63:46:1a:74:74:04:e5:af:f8:66:
                    90:b5:13:c6:fc:25:c4:7b:a2:be:9f:71:80:ca:f3:
                    a3:78:46:63:0d:72:ed:3c:60:cb:d6:0d:b3:9a:a4:
                    d3:cf
                Exponent: 65537 (0x10001)
        X509v3 extensions:
            X509v3 Basic Constraints: 
                CA:FALSE
            X509v3 Subject Key Identifier: 
                DF:50:00:1E:00:CC:48:51:CB:90:54:95:04:9E:63:D9:B3:D7:0F:93
            X509v3 Authority Key Identifier: 
                keyid:47:DF:2C:35:75:78:05:25:2E:CB:18:A2:B9:69:4E:F5:35:D3:2E:A8
                DirName:/CN=SecurityMetrics CA/C=US/ST=Utah/L=Orem/O=securitymetrics.com/emailAddress=operations@securitymetrics.com
                serial:A3:59:46:C5:83:25:B9:BE

            Netscape CA Revocation Url: 
                https://ops.securitymetrics.com/ca-crl.pem
    Signature Algorithm: sha1WithRSAEncryption
        cf:6c:8d:38:fe:7d:4b:a3:18:48:43:65:d8:63:63:af:58:5c:
        84:e7:ee:95:cc:55:9f:2a:9a:18:22:2a:ef:e1:33:7e:c8:a3:
        9f:10:ef:08:7e:2b:e6:c2:a6:35:62:58:1b:e1:6b:a0:de:61:
        f8:0c:59:c0:10:4e:a9:22:0f:4c:f6:de:6a:bf:9d:27:4e:15:
        57:ce:a0:9f:da:6c:1a:d7:78:b4:85:d6:61:79:00:f6:9e:e0:
        68:6c:f9:83:24:5f:7d:87:97:57:53:b7:f7:44:03:b6:a2:2a:
        17:16:0a:54:a5:5f:c0:52:ec:05:a3:15:cf:c4:1f:3f:26:fa:
        3e:82:56:f0:bd:92:ce:c5:96:b0:bc:69:22:5a:98:f7:d7:2c:
        d1:4b:e8:a9:c0:05:26:4d:aa:e8:8a:91:db:44:44:ae:54:32:
        e9:ba:82:90:38:a6:db:74:3d:db:c4:79:b1:b7:94:12:14:0c:
        87:9d:e1:79:28:59:e2:3e:e0:ad:a9:bc:17:07:bd:64:8e:7c:
        bd:f2:e0:5b:4e:15:49:b6:ae:93:d3:d0:c7:a3:fe:52:a9:da:
        b8:85:5b:b6:4f:16:0f:c5:5f:a4:e4:ca:36:61:48:46:5c:c7:
        a2:d1:05:cc:78:ad:f6:db:83:b8:12:71:87:01:73:73:f9:a7:
        2b:68:2a:80
-----BEGIN CERTIFICATE-----
MIIEuTCCA6GgAwIBAgIBKDANBgkqhkiG9w0BAQUFADCBlTEbMBkGA1UEAxMSU2Vj
dXJpdHlNZXRyaWNzIENBMQswCQYDVQQGEwJVUzENMAsGA1UECBMEVXRhaDENMAsG
A1UEBxMET3JlbTEcMBoGA1UEChMTc2VjdXJpdHltZXRyaWNzLmNvbTEtMCsGCSqG
SIb3DQEJARYeb3BlcmF0aW9uc0BzZWN1cml0eW1ldHJpY3MuY29tMB4XDTEwMTIw
ODIxMDYyNVoXDTM4MDQyNTIxMDYyNVowcDELMAkGA1UEBhMCVVMxDTALBgNVBAgT
BFV0YWgxHDAaBgNVBAoTE3NlY3VyaXR5bWV0cmljcy5jb20xDDAKBgNVBAMTA2Jv
YjEmMCQGCSqGSIb3DQEJARYXb3BzQHNlY3VyaXR5bWV0cmljcy5jb20wggEiMA0G
CSqGSIb3DQEBAQUAA4IBDwAwggEKAoIBAQCtJqZ8IqJMBC88iZ6KEcWLaSO3ODyf
ex4J0s/EAD1wbG0+3eEzC1/ZrtjeW7F4L021rlj0T5QlrPv1c9z2jJS7p0kLbXl7
karylUSwlc+XfVrA8/4amCOw9i6dIOi2N0FirBoTHARUVaGX6uRPU/OB7blIf2bL
ZVK7QlqaS+ulFqCrijyDralRV9fpCy4/RdBWxe/Rm33seteKHMNbMZa+MrxBjh6i
STm29xq2GwnNcE/Iy0arieXIoGgXT8psIqbgWtQZLcGSQXt68sfqUi4g//J36jgJ
Y0YadHQE5a/4ZpC1E8b8JcR7or6fcYDK86N4RmMNcu08YMvWDbOapNPPAgMBAAGj
ggE2MIIBMjAJBgNVHRMEAjAAMB0GA1UdDgQWBBTfUAAeAMxIUcuQVJUEnmPZs9cP
kzCBygYDVR0jBIHCMIG/gBRH3yw1dXgFJS7LGKK5aU71NdMuqKGBm6SBmDCBlTEb
MBkGA1UEAxMSU2VjdXJpdHlNZXRyaWNzIENBMQswCQYDVQQGEwJVUzENMAsGA1UE
CBMEVXRhaDENMAsGA1UEBxMET3JlbTEcMBoGA1UEChMTc2VjdXJpdHltZXRyaWNz
LmNvbTEtMCsGCSqGSIb3DQEJARYeb3BlcmF0aW9uc0BzZWN1cml0eW1ldHJpY3Mu
Y29tggkAo1lGxYMlub4wOQYJYIZIAYb4QgEEBCwWKmh0dHBzOi8vb3BzLnNlY3Vy
aXR5bWV0cmljcy5jb20vY2EtY3JsLnBlbTANBgkqhkiG9w0BAQUFAAOCAQEAz2yN
OP59S6MYSENl2GNjr1hchOfulcxVnyqaGCIq7+EzfsijnxDvCH4r5sKmNWJYG+Fr
oN5h+AxZwBBOqSIPTPbear+dJ04VV86gn9psGtd4tIXWYXkA9p7gaGz5gyRffYeX
V1O390QDtqIqFxYKVKVfwFLsBaMVz8QfPyb6PoJW8L2SzsWWsLxpIlqY99cs0Uvo
qcAFJk2q6IqR20RErlQy6bqCkDim23Q928R5sbeUEhQMh53heShZ4j7gram8Fwe9
ZI58vfLgW04VSbauk9PQx6P+UqnauIVbtk8WD8VfpOTKNmFIRlzHotEFzHit9tuD
uBJxhwFzc/mnK2gqgA==
-----END CERTIFICATE-----
